; Function Attrs: mustprogress uwtable
define void @proj_context_set_url_endpoint(ptr noundef %0, ptr noundef %1) local_unnamed_addr #3 {
  %3 = icmp eq ptr %0, null
  br i1 %3, label %4, label %6

4:                                                ; preds = %2
  %5 = tail call noundef ptr @_Z18pj_get_default_ctxv()
  br label %6

6:                                                ; preds = %4, %2
  %.0 = phi ptr [ %5, %4 ], [ %0, %2 ]
  tail call void @_Z11pj_load_iniP6pj_ctx(ptr noundef %.0)
  %7 = getelementptr inbounds nuw i8, ptr %.0, i64 384
  %8 = getelementptr inbounds nuw i8, ptr %.0, i64 392
  %9 = load i64, ptr %8, align 8, !tbaa !22
  %10 = tail call noundef i64 @strlen(ptr noundef nonnull dereferenceable(1) %1) #30
  %11 = tail call noundef nonnull align 8 dereferenceable(32) ptr @_ZNSt7__cxx1112basic_stringIcSt11char_traitsIcESaIcEE10_M_replaceEmmPKcm(ptr noundef nonnull align 8 dereferenceable(32) %7, i64 noundef 0, i64 noundef %9, ptr noundef nonnull %1, i64 noundef %10)
  ret void
}